target datalayout = "e-m:e-p270:32:32-p271:32:32-p272:64:64-i64:64-i128:128-f80:128-n8:16:32:64-S128"
target triple = "x86_64-pc-linux-gnu"

%"class.LIEF::MachO::DataCodeEntry" = type <{ %"class.LIEF::Object", i32, i16, [2 x i8], i32, [4 x i8] }>
%"class.LIEF::Object" = type { ptr }
%"struct.LIEF::MachO::details::data_in_code_entry" = type { i32, i16, i16 }

; Function Attrs: mustprogress nounwind uwtable
define void @_ZN4LIEF5MachO13DataCodeEntryC2ERKNS0_7details18data_in_code_entryE(ptr noundef nonnull align 8 dereferenceable(20) %0, ptr noundef nonnull align 4 dereferenceable(8) %1) unnamed_addr #0 align 2 {
  %3 = alloca ptr, align 8
  %4 = alloca ptr, align 8
  store ptr %0, ptr %3, align 8, !tbaa !3
  store ptr %1, ptr %4, align 8, !tbaa !8
  %5 = load ptr, ptr %3, align 8
  call void @_ZN4LIEF6ObjectC2Ev(ptr noundef nonnull align 8 dereferenceable(8) %5)
  store ptr getelementptr inbounds inrange(-16, 40) ({ [7 x ptr] }, ptr @_ZTVN4LIEF5MachO13DataCodeEntryE, i32 0, i32 0, i32 2), ptr %5, align 8, !tbaa !10
  %6 = getelementptr inbounds nuw %"class.LIEF::MachO::DataCodeEntry", ptr %5, i32 0, i32 1
  %7 = load ptr, ptr %4, align 8, !tbaa !8
  %8 = getelementptr inbounds nuw %"struct.LIEF::MachO::details::data_in_code_entry", ptr %7, i32 0, i32 0
  %9 = load i32, ptr %8, align 4, !tbaa !12
  store i32 %9, ptr %6, align 8, !tbaa !16
  %10 = getelementptr inbounds nuw %"class.LIEF::MachO::DataCodeEntry", ptr %5, i32 0, i32 2
  %11 = load ptr, ptr %4, align 8, !tbaa !8
  %12 = getelementptr inbounds nuw %"struct.LIEF::MachO::details::data_in_code_entry", ptr %11, i32 0, i32 1
  %13 = load i16, ptr %12, align 4, !tbaa !20
  store i16 %13, ptr %10, align 4, !tbaa !21
  %14 = getelementptr inbounds nuw %"class.LIEF::MachO::DataCodeEntry", ptr %5, i32 0, i32 4
  %15 = load ptr, ptr %4, align 8, !tbaa !8
  %16 = getelementptr inbounds nuw %"struct.LIEF::MachO::details::data_in_code_entry", ptr %15, i32 0, i32 2
  %17 = load i16, ptr %16, align 2, !tbaa !22
  %18 = zext i16 %17 to i32
  store i32 %18, ptr %14, align 8, !tbaa !23
  ret void
}