; Function Attrs: mustprogress nounwind uwtable
define void @_ZN4LIEF5MachO13DataCodeEntryC2ERKNS0_7details18data_in_code_entryE(ptr noundef nonnull align 8 dereferenceable(20) %0, ptr noundef nonnull readonly align 4 captures(none) dereferenceable(8) %1) unnamed_addr #0 align 2 {
  tail call void @_ZN4LIEF6ObjectC2Ev(ptr noundef nonnull align 8 dereferenceable(8) %0) #22
  store ptr getelementptr inbounds nuw inrange(-16, 40) (i8, ptr @_ZTVN4LIEF5MachO13DataCodeEntryE, i64 16), ptr %0, align 8, !tbaa !3
  %3 = getelementptr inbounds nuw i8, ptr %0, i64 8
  %4 = load i32, ptr %1, align 4, !tbaa !6
  store i32 %4, ptr %3, align 8, !tbaa !11
  %5 = getelementptr inbounds nuw i8, ptr %0, i64 12
  %6 = getelementptr inbounds nuw i8, ptr %1, i64 4
  %7 = load i16, ptr %6, align 4, !tbaa !15
  store i16 %7, ptr %5, align 4, !tbaa !16
  %8 = getelementptr inbounds nuw i8, ptr %0, i64 16
  %9 = getelementptr inbounds nuw i8, ptr %1, i64 6
  %10 = load i16, ptr %9, align 2, !tbaa !17
  %11 = zext i16 %10 to i32
  store i32 %11, ptr %8, align 8, !tbaa !18
  ret void
}